target datalayout = "e-m:e-p270:32:32-p271:32:32-p272:64:64-i64:64-i128:128-f80:128-n8:16:32:64-S128"
target triple = "x86_64-pc-linux-gnu"

%"class.zxing::Counted" = type <{ ptr, i32, [4 x i8] }>
%"class.zxing::Ref" = type { ptr }

@_ZN5zxing20PerspectiveTransformC1Efffffffff = hidden unnamed_addr alias void (ptr, float, float, float, float, float, float, float, float, float), ptr @_ZN5zxing20PerspectiveTransformC2Efffffffff

; Function Attrs: mustprogress nounwind uwtable
define linkonce_odr hidden noundef ptr @_ZN5zxing7Counted6retainEv(ptr noundef nonnull align 8 dereferenceable(12) %0) #1 comdat align 2 {
  %2 = alloca ptr, align 8
  store ptr %0, ptr %2, align 8, !tbaa !24
  %3 = load ptr, ptr %2, align 8
  %4 = getelementptr inbounds nuw %"class.zxing::Counted", ptr %3, i32 0, i32 1
  %5 = load i32, ptr %4, align 8, !tbaa !26
  %6 = add i32 %5, 1
  store i32 %6, ptr %4, align 8, !tbaa !26
  ret ptr %3
}

; Function Attrs: noinline noreturn nounwind uwtable
define linkonce_odr hidden void @__clang_call_terminate(ptr noundef %0) #7 comdat {
  %2 = call ptr @__cxa_begin_catch(ptr %0) #8
  call void @_ZSt9terminatev() #11
  unreachable
}

; Function Attrs: mustprogress nounwind uwtable
define linkonce_odr hidden void @_ZN5zxing7Counted7releaseEv(ptr noundef nonnull align 8 dereferenceable(12) %0) #1 comdat align 2 {
  %2 = alloca ptr, align 8
  store ptr %0, ptr %2, align 8, !tbaa !24
  %3 = load ptr, ptr %2, align 8
  %4 = getelementptr inbounds nuw %"class.zxing::Counted", ptr %3, i32 0, i32 1
  %5 = load i32, ptr %4, align 8, !tbaa !26
  %6 = add i32 %5, -1
  store i32 %6, ptr %4, align 8, !tbaa !26
  %7 = getelementptr inbounds nuw %"class.zxing::Counted", ptr %3, i32 0, i32 1
  %8 = load i32, ptr %7, align 8, !tbaa !26
  %9 = icmp eq i32 %8, 0
  br i1 %9, label %10, label %18

10:                                               ; preds = %1
  %11 = getelementptr inbounds nuw %"class.zxing::Counted", ptr %3, i32 0, i32 1
  store i32 -559026175, ptr %11, align 8, !tbaa !26
  %12 = icmp eq ptr %3, null
  br i1 %12, label %17, label %13

13:                                               ; preds = %10
  %14 = load ptr, ptr %3, align 8, !tbaa !10
  %15 = getelementptr inbounds ptr, ptr %14, i64 1
  %16 = load ptr, ptr %15, align 8
  call void %16(ptr noundef nonnull align 8 dereferenceable(12) %3) #8
  br label %17

17:                                               ; preds = %13, %10
  br label %18

18:                                               ; preds = %17, %1
  ret void
}

; Function Attrs: mustprogress uwtable
define linkonce_odr hidden void @_ZN5zxing3RefINS_20PerspectiveTransformEE5resetEPS1_(ptr noundef nonnull align 8 dereferenceable(8) %0, ptr noundef %1) #0 comdat align 2 {
  %3 = alloca ptr, align 8
  %4 = alloca ptr, align 8
  store ptr %0, ptr %3, align 8, !tbaa !27
  store ptr %1, ptr %4, align 8, !tbaa !3
  %5 = load ptr, ptr %3, align 8
  %6 = load ptr, ptr %4, align 8, !tbaa !3
  %7 = icmp ne ptr %6, null
  br i1 %7, label %8, label %11

8:                                                ; preds = %2
  %9 = load ptr, ptr %4, align 8, !tbaa !3
  %10 = call noundef ptr @_ZN5zxing7Counted6retainEv(ptr noundef nonnull align 8 dereferenceable(12) %9)
  br label %11

11:                                               ; preds = %8, %2
  %12 = getelementptr inbounds nuw %"class.zxing::Ref", ptr %5, i32 0, i32 0
  %13 = load ptr, ptr %12, align 8, !tbaa !29
  %14 = icmp ne ptr %13, null
  br i1 %14, label %15, label %18

15:                                               ; preds = %11
  %16 = getelementptr inbounds nuw %"class.zxing::Ref", ptr %5, i32 0, i32 0
  %17 = load ptr, ptr %16, align 8, !tbaa !29
  call void @_ZN5zxing7Counted7releaseEv(ptr noundef nonnull align 8 dereferenceable(12) %17)
  br label %18

18:                                               ; preds = %15, %11
  %19 = load ptr, ptr %4, align 8, !tbaa !3
  %20 = getelementptr inbounds nuw %"class.zxing::Ref", ptr %5, i32 0, i32 0
  store ptr %19, ptr %20, align 8, !tbaa !29
  ret void
}

; Function Attrs: mustprogress nounwind uwtable
define linkonce_odr hidden void @_ZN5zxing3RefINS_20PerspectiveTransformEED2Ev(ptr noundef nonnull align 8 dereferenceable(8) %0) unnamed_addr #1 comdat align 2 personality ptr @__gxx_personality_v0 {
  %2 = alloca ptr, align 8
  store ptr %0, ptr %2, align 8, !tbaa !27
  %3 = load ptr, ptr %2, align 8
  %4 = getelementptr inbounds nuw %"class.zxing::Ref", ptr %3, i32 0, i32 0
  %5 = load ptr, ptr %4, align 8, !tbaa !29
  %6 = icmp ne ptr %5, null
  br i1 %6, label %7, label %11

7:                                                ; preds = %1
  %8 = getelementptr inbounds nuw %"class.zxing::Ref", ptr %3, i32 0, i32 0
  %9 = load ptr, ptr %8, align 8, !tbaa !29
  invoke void @_ZN5zxing7Counted7releaseEv(ptr noundef nonnull align 8 dereferenceable(12) %9)
          to label %10 unwind label %12

10:                                               ; preds = %7
  br label %11

11:                                               ; preds = %10, %1
  ret void

12:                                               ; preds = %7
  %13 = landingpad { ptr, i32 }
          catch ptr null
  %14 = extractvalue { ptr, i32 } %13, 0
  call void @__clang_call_terminate(ptr %14) #11
  unreachable
}

; Function Attrs: mustprogress uwtable
define linkonce_odr hidden void @_ZN5zxing3RefINS_20PerspectiveTransformEEC2EPS1_(ptr noundef nonnull align 8 dereferenceable(8) %0, ptr noundef %1) unnamed_addr #0 comdat align 2 {
  %3 = alloca ptr, align 8
  %4 = alloca ptr, align 8
  store ptr %0, ptr %3, align 8, !tbaa !27
  store ptr %1, ptr %4, align 8, !tbaa !3
  %5 = load ptr, ptr %3, align 8
  %6 = getelementptr inbounds nuw %"class.zxing::Ref", ptr %5, i32 0, i32 0
  store ptr null, ptr %6, align 8, !tbaa !29
  %7 = load ptr, ptr %4, align 8, !tbaa !3
  call void @_ZN5zxing3RefINS_20PerspectiveTransformEE5resetEPS1_(ptr noundef nonnull align 8 dereferenceable(8) %5, ptr noundef %7)
  ret void
}

; Function Attrs: mustprogress uwtable
define hidden void @_ZN5zxing20PerspectiveTransform21squareToQuadrilateralEffffffff(ptr dead_on_unwind noalias writable sret(%"class.zxing::Ref") align 8 %0, float noundef %1, float noundef %2, float noundef %3, float noundef %4, float noundef %5, float noundef %6, float noundef %7, float noundef %8) #0 align 2 personality ptr @__gxx_personality_v0 {
  %10 = alloca ptr, align 8
  %11 = alloca float, align 4
  %12 = alloca float, align 4
  %13 = alloca float, align 4
  %14 = alloca float, align 4
  %15 = alloca float, align 4
  %16 = alloca float, align 4
  %17 = alloca float, align 4
  %18 = alloca float, align 4
  %19 = alloca float, align 4
  %20 = alloca float, align 4
  %21 = alloca i1, align 1
  %22 = alloca ptr, align 8
  %23 = alloca i32, align 4
  %24 = alloca i32, align 4
  %25 = alloca float, align 4
  %26 = alloca float, align 4
  %27 = alloca float, align 4
  %28 = alloca float, align 4
  %29 = alloca float, align 4
  %30 = alloca float, align 4
  %31 = alloca float, align 4
  %32 = alloca i1, align 1
  store ptr %0, ptr %10, align 8
  store float %1, ptr %11, align 4, !tbaa !8
  store float %2, ptr %12, align 4, !tbaa !8
  store float %3, ptr %13, align 4, !tbaa !8
  store float %4, ptr %14, align 4, !tbaa !8
  store float %5, ptr %15, align 4, !tbaa !8
  store float %6, ptr %16, align 4, !tbaa !8
  store float %7, ptr %17, align 4, !tbaa !8
  store float %8, ptr %18, align 4, !tbaa !8
  call void @llvm.lifetime.start.p0(i64 4, ptr %19) #8
  %33 = load float, ptr %11, align 4, !tbaa !8
  %34 = load float, ptr %13, align 4, !tbaa !8
  %35 = fsub float %33, %34
  %36 = load float, ptr %15, align 4, !tbaa !8
  %37 = fadd float %35, %36
  %38 = load float, ptr %17, align 4, !tbaa !8
  %39 = fsub float %37, %38
  store float %39, ptr %19, align 4, !tbaa !8
  call void @llvm.lifetime.start.p0(i64 4, ptr %20) #8
  %40 = load float, ptr %12, align 4, !tbaa !8
  %41 = load float, ptr %14, align 4, !tbaa !8
  %42 = fsub float %40, %41
  %43 = load float, ptr %16, align 4, !tbaa !8
  %44 = fadd float %42, %43
  %45 = load float, ptr %18, align 4, !tbaa !8
  %46 = fsub float %44, %45
  store float %46, ptr %20, align 4, !tbaa !8
  %47 = load float, ptr %19, align 4, !tbaa !8
  %48 = fpext float %47 to double
  %49 = call double @llvm.fabs.f64(double %48)
  %50 = fcmp ole double %49, 0x3EB0C6F7A0B5ED8D
  br i1 %50, label %51, label %80

51:                                               ; preds = %9
  %52 = load float, ptr %20, align 4, !tbaa !8
  %53 = fpext float %52 to double
  %54 = call double @llvm.fabs.f64(double %53)
  %55 = fcmp ole double %54, 0x3EB0C6F7A0B5ED8D
  br i1 %55, label %56, label %80

56:                                               ; preds = %51
  store i1 false, ptr %21, align 1
  %57 = call noalias noundef nonnull ptr @_Znwm(i64 noundef 48) #9
  %58 = load float, ptr %13, align 4, !tbaa !8
  %59 = load float, ptr %11, align 4, !tbaa !8
  %60 = fsub float %58, %59
  %61 = load float, ptr %15, align 4, !tbaa !8
  %62 = load float, ptr %13, align 4, !tbaa !8
  %63 = fsub float %61, %62
  %64 = load float, ptr %11, align 4, !tbaa !8
  %65 = load float, ptr %14, align 4, !tbaa !8
  %66 = load float, ptr %12, align 4, !tbaa !8
  %67 = fsub float %65, %66
  %68 = load float, ptr %16, align 4, !tbaa !8
  %69 = load float, ptr %14, align 4, !tbaa !8
  %70 = fsub float %68, %69
  %71 = load float, ptr %12, align 4, !tbaa !8
  invoke void @_ZN5zxing20PerspectiveTransformC1Efffffffff(ptr noundef nonnull align 8 dereferenceable(48) %57, float noundef %60, float noundef %63, float noundef %64, float noundef %67, float noundef %70, float noundef %71, float noundef 0.000000e+00, float noundef 0.000000e+00, float noundef 1.000000e+00)
          to label %72 unwind label %74

72:                                               ; preds = %56
  call void @_ZN5zxing3RefINS_20PerspectiveTransformEEC2EPS1_(ptr noundef nonnull align 8 dereferenceable(8) %0, ptr noundef %57)
  store i1 true, ptr %21, align 1
  store i32 1, ptr %24, align 4
  %73 = load i1, ptr %21, align 1
  br i1 %73, label %79, label %78

74:                                               ; preds = %56
  %75 = landingpad { ptr, i32 }
          cleanup
  %76 = extractvalue { ptr, i32 } %75, 0
  store ptr %76, ptr %22, align 8
  %77 = extractvalue { ptr, i32 } %75, 1
  store i32 %77, ptr %23, align 4
  call void @_ZdlPv(ptr noundef %57) #10
  br label %156

78:                                               ; preds = %72
  call void @_ZN5zxing3RefINS_20PerspectiveTransformEED2Ev(ptr noundef nonnull align 8 dereferenceable(8) %0) #8
  br label %79

79:                                               ; preds = %78, %72
  br label %155

80:                                               ; preds = %51, %9
  call void @llvm.lifetime.start.p0(i64 4, ptr %25) #8
  %81 = load float, ptr %13, align 4, !tbaa !8
  %82 = load float, ptr %15, align 4, !tbaa !8
  %83 = fsub float %81, %82
  store float %83, ptr %25, align 4, !tbaa !8
  call void @llvm.lifetime.start.p0(i64 4, ptr %26) #8
  %84 = load float, ptr %17, align 4, !tbaa !8
  %85 = load float, ptr %15, align 4, !tbaa !8
  %86 = fsub float %84, %85
  store float %86, ptr %26, align 4, !tbaa !8
  call void @llvm.lifetime.start.p0(i64 4, ptr %27) #8
  %87 = load float, ptr %14, align 4, !tbaa !8
  %88 = load float, ptr %16, align 4, !tbaa !8
  %89 = fsub float %87, %88
  store float %89, ptr %27, align 4, !tbaa !8
  call void @llvm.lifetime.start.p0(i64 4, ptr %28) #8
  %90 = load float, ptr %18, align 4, !tbaa !8
  %91 = load float, ptr %16, align 4, !tbaa !8
  %92 = fsub float %90, %91
  store float %92, ptr %28, align 4, !tbaa !8
  call void @llvm.lifetime.start.p0(i64 4, ptr %29) #8
  %93 = load float, ptr %25, align 4, !tbaa !8
  %94 = load float, ptr %28, align 4, !tbaa !8
  %95 = load float, ptr %26, align 4, !tbaa !8
  %96 = load float, ptr %27, align 4, !tbaa !8
  %97 = fmul float %95, %96
  %98 = fneg float %97
  %99 = call float @llvm.fmuladd.f32(float %93, float %94, float %98)
  store float %99, ptr %29, align 4, !tbaa !8
  call void @llvm.lifetime.start.p0(i64 4, ptr %30) #8
  %100 = load float, ptr %19, align 4, !tbaa !8
  %101 = load float, ptr %28, align 4, !tbaa !8
  %102 = load float, ptr %26, align 4, !tbaa !8
  %103 = load float, ptr %20, align 4, !tbaa !8
  %104 = fmul float %102, %103
  %105 = fneg float %104
  %106 = call float @llvm.fmuladd.f32(float %100, float %101, float %105)
  %107 = load float, ptr %29, align 4, !tbaa !8
  %108 = fdiv float %106, %107
  store float %108, ptr %30, align 4, !tbaa !8
  call void @llvm.lifetime.start.p0(i64 4, ptr %31) #8
  %109 = load float, ptr %25, align 4, !tbaa !8
  %110 = load float, ptr %20, align 4, !tbaa !8
  %111 = load float, ptr %19, align 4, !tbaa !8
  %112 = load float, ptr %27, align 4, !tbaa !8
  %113 = fmul float %111, %112
  %114 = fneg float %113
  %115 = call float @llvm.fmuladd.f32(float %109, float %110, float %114)
  %116 = load float, ptr %29, align 4, !tbaa !8
  %117 = fdiv float %115, %116
  store float %117, ptr %31, align 4, !tbaa !8
  store i1 false, ptr %32, align 1
  %118 = call noalias noundef nonnull ptr @_Znwm(i64 noundef 48) #9
  %119 = load float, ptr %13, align 4, !tbaa !8
  %120 = load float, ptr %11, align 4, !tbaa !8
  %121 = fsub float %119, %120
  %122 = load float, ptr %30, align 4, !tbaa !8
  %123 = load float, ptr %13, align 4, !tbaa !8
  %124 = call float @llvm.fmuladd.f32(float %122, float %123, float %121)
  %125 = load float, ptr %17, align 4, !tbaa !8
  %126 = load float, ptr %11, align 4, !tbaa !8
  %127 = fsub float %125, %126
  %128 = load float, ptr %31, align 4, !tbaa !8
  %129 = load float, ptr %17, align 4, !tbaa !8
  %130 = call float @llvm.fmuladd.f32(float %128, float %129, float %127)
  %131 = load float, ptr %11, align 4, !tbaa !8
  %132 = load float, ptr %14, align 4, !tbaa !8
  %133 = load float, ptr %12, align 4, !tbaa !8
  %134 = fsub float %132, %133
  %135 = load float, ptr %30, align 4, !tbaa !8
  %136 = load float, ptr %14, align 4, !tbaa !8
  %137 = call float @llvm.fmuladd.f32(float %135, float %136, float %134)
  %138 = load float, ptr %18, align 4, !tbaa !8
  %139 = load float, ptr %12, align 4, !tbaa !8
  %140 = fsub float %138, %139
  %141 = load float, ptr %31, align 4, !tbaa !8
  %142 = load float, ptr %18, align 4, !tbaa !8
  %143 = call float @llvm.fmuladd.f32(float %141, float %142, float %140)
  %144 = load float, ptr %12, align 4, !tbaa !8
  %145 = load float, ptr %30, align 4, !tbaa !8
  %146 = load float, ptr %31, align 4, !tbaa !8
  invoke void @_ZN5zxing20PerspectiveTransformC1Efffffffff(ptr noundef nonnull align 8 dereferenceable(48) %118, float noundef %124, float noundef %130, float noundef %131, float noundef %137, float noundef %143, float noundef %144, float noundef %145, float noundef %146, float noundef 1.000000e+00)
          to label %147 unwind label %149

147:                                              ; preds = %80
  call void @_ZN5zxing3RefINS_20PerspectiveTransformEEC2EPS1_(ptr noundef nonnull align 8 dereferenceable(8) %0, ptr noundef %118)
  store i1 true, ptr %32, align 1
  store i32 1, ptr %24, align 4
  %148 = load i1, ptr %32, align 1
  br i1 %148, label %154, label %153

149:                                              ; preds = %80
  %150 = landingpad { ptr, i32 }
          cleanup
  %151 = extractvalue { ptr, i32 } %150, 0
  store ptr %151, ptr %22, align 8
  %152 = extractvalue { ptr, i32 } %150, 1
  store i32 %152, ptr %23, align 4
  call void @_ZdlPv(ptr noundef %118) #10
  call void @llvm.lifetime.end.p0(i64 4, ptr %31) #8
  call void @llvm.lifetime.end.p0(i64 4, ptr %30) #8
  call void @llvm.lifetime.end.p0(i64 4, ptr %29) #8
  call void @llvm.lifetime.end.p0(i64 4, ptr %28) #8
  call void @llvm.lifetime.end.p0(i64 4, ptr %27) #8
  call void @llvm.lifetime.end.p0(i64 4, ptr %26) #8
  call void @llvm.lifetime.end.p0(i64 4, ptr %25) #8
  br label %156

153:                                              ; preds = %147
  call void @_ZN5zxing3RefINS_20PerspectiveTransformEED2Ev(ptr noundef nonnull align 8 dereferenceable(8) %0) #8
  br label %154

154:                                              ; preds = %153, %147
  call void @llvm.lifetime.end.p0(i64 4, ptr %31) #8
  call void @llvm.lifetime.end.p0(i64 4, ptr %30) #8
  call void @llvm.lifetime.end.p0(i64 4, ptr %29) #8
  call void @llvm.lifetime.end.p0(i64 4, ptr %28) #8
  call void @llvm.lifetime.end.p0(i64 4, ptr %27) #8
  call void @llvm.lifetime.end.p0(i64 4, ptr %26) #8
  call void @llvm.lifetime.end.p0(i64 4, ptr %25) #8
  br label %155

155:                                              ; preds = %154, %79
  call void @llvm.lifetime.end.p0(i64 4, ptr %20) #8
  call void @llvm.lifetime.end.p0(i64 4, ptr %19) #8
  ret void

156:                                              ; preds = %149, %74
  call void @llvm.lifetime.end.p0(i64 4, ptr %20) #8
  call void @llvm.lifetime.end.p0(i64 4, ptr %19) #8
  br label %157

157:                                              ; preds = %156
  %158 = load ptr, ptr %22, align 8
  %159 = load i32, ptr %23, align 4
  %160 = insertvalue { ptr, i32 } poison, ptr %158, 0
  %161 = insertvalue { ptr, i32 } %160, i32 %159, 1
  resume { ptr, i32 } %161
}