; Function Attrs: mustprogress uwtable
define hidden void @_ZN5zxing20PerspectiveTransform21squareToQuadrilateralEffffffff(ptr dead_on_unwind noalias writable writeonly sret(%"class.zxing::Ref") align 8 captures(none) initializes((0, 8)) %0, float noundef %1, float noundef %2, float noundef %3, float noundef %4, float noundef %5, float noundef %6, float noundef %7, float noundef %8) local_unnamed_addr #1 align 2 personality ptr @__gxx_personality_v0 {
  %10 = fsub float %1, %3
  %11 = fadd float %10, %5
  %12 = fsub float %11, %7
  %13 = fsub float %2, %4
  %14 = fadd float %13, %6
  %15 = fsub float %14, %8
  %16 = tail call float @llvm.fabs.f32(float %12)
  %17 = fpext float %16 to double
  %18 = fcmp ugt double %17, 0x3EB0C6F7A0B5ED8D
  br i1 %18, label %29, label %19

19:                                               ; preds = %9
  %20 = tail call float @llvm.fabs.f32(float %15)
  %21 = fpext float %20 to double
  %22 = fcmp ugt double %21, 0x3EB0C6F7A0B5ED8D
  br i1 %22, label %29, label %23

23:                                               ; preds = %19
  %24 = tail call noalias noundef nonnull dereferenceable(48) ptr @_Znwm(i64 noundef 48) #12
  %25 = fsub float %3, %1
  %26 = fsub float %5, %3
  %27 = fsub float %4, %2
  %28 = fsub float %6, %4
  br label %53

29:                                               ; preds = %9, %19
  %30 = fsub float %3, %5
  %31 = fsub float %7, %5
  %32 = fsub float %4, %6
  %33 = fsub float %8, %6
  %34 = fneg float %32
  %35 = fmul float %31, %34
  %36 = tail call float @llvm.fmuladd.f32(float %30, float %33, float %35)
  %37 = fneg float %15
  %38 = fmul float %31, %37
  %39 = tail call float @llvm.fmuladd.f32(float %12, float %33, float %38)
  %40 = fdiv float %39, %36
  %41 = fmul float %12, %34
  %42 = tail call float @llvm.fmuladd.f32(float %30, float %15, float %41)
  %43 = fdiv float %42, %36
  %44 = tail call noalias noundef nonnull dereferenceable(48) ptr @_Znwm(i64 noundef 48) #12
  %45 = fsub float %3, %1
  %46 = tail call float @llvm.fmuladd.f32(float %40, float %3, float %45)
  %47 = fsub float %7, %1
  %48 = tail call float @llvm.fmuladd.f32(float %43, float %7, float %47)
  %49 = fsub float %4, %2
  %50 = tail call float @llvm.fmuladd.f32(float %40, float %4, float %49)
  %51 = fsub float %8, %2
  %52 = tail call float @llvm.fmuladd.f32(float %43, float %8, float %51)
  br label %53

53:                                               ; preds = %23, %29
  %.sink92 = phi ptr [ %24, %23 ], [ %44, %29 ]
  %.sink88 = phi float [ %25, %23 ], [ %46, %29 ]
  %.sink85 = phi float [ %27, %23 ], [ %50, %29 ]
  %.sink82 = phi float [ 0.000000e+00, %23 ], [ %40, %29 ]
  %.sink79 = phi float [ %26, %23 ], [ %48, %29 ]
  %.sink76 = phi float [ %28, %23 ], [ %52, %29 ]
  %.sink73 = phi float [ 0.000000e+00, %23 ], [ %43, %29 ]
  %54 = getelementptr inbounds nuw i8, ptr %.sink92, i64 8
  store ptr getelementptr inbounds nuw inrange(-16, 16) (i8, ptr @_ZTVN5zxing20PerspectiveTransformE, i64 16), ptr %.sink92, align 8, !tbaa !8
  %55 = getelementptr inbounds nuw i8, ptr %.sink92, i64 12
  store float %.sink88, ptr %55, align 4, !tbaa !10
  %56 = getelementptr inbounds nuw i8, ptr %.sink92, i64 16
  store float %.sink85, ptr %56, align 8, !tbaa !13
  %57 = getelementptr inbounds nuw i8, ptr %.sink92, i64 20
  store float %.sink82, ptr %57, align 4, !tbaa !14
  %58 = getelementptr inbounds nuw i8, ptr %.sink92, i64 24
  store float %.sink79, ptr %58, align 8, !tbaa !15
  %59 = getelementptr inbounds nuw i8, ptr %.sink92, i64 28
  store float %.sink76, ptr %59, align 4, !tbaa !16
  %60 = getelementptr inbounds nuw i8, ptr %.sink92, i64 32
  store float %.sink73, ptr %60, align 8, !tbaa !17
  %61 = getelementptr inbounds nuw i8, ptr %.sink92, i64 36
  store float %1, ptr %61, align 4, !tbaa !18
  %62 = getelementptr inbounds nuw i8, ptr %.sink92, i64 40
  store float %2, ptr %62, align 8, !tbaa !19
  %63 = getelementptr inbounds nuw i8, ptr %.sink92, i64 44
  store float 1.000000e+00, ptr %63, align 4, !tbaa !20
  store i32 1, ptr %54, align 8, !tbaa !3
  store ptr %.sink92, ptr %0, align 8, !tbaa !21
  ret void
}